target datalayout = "e-m:e-p270:32:32-p271:32:32-p272:64:64-i64:64-i128:128-f80:128-n8:16:32:64-S128"
target triple = "x86_64-pc-linux-gnu"

@.str = private unnamed_addr constant [36 x i8] c"FATAL ERROR %s -> in %s @ in %s:%d \00", align 1
@.str.1 = private unnamed_addr constant [22 x i8] c"Should be unreachable\00", align 1
@__func__.binary_op_matches_res = private unnamed_addr constant [22 x i8] c"binary_op_matches_res\00", align 1
@.str.2 = private unnamed_addr constant [107 x i8] c"generated/home/dtcxzyw/WorkSpace/Projects/compilers/llvm-opt-benchmark/bench/c3c/c3c/src/compiler/bigint.c\00", align 1

; Function Attrs: nounwind uwtable
define dso_local zeroext i1 @binary_op_matches_res(i32 noundef %0, i32 noundef %1) #0 {
  %3 = alloca i1, align 1
  %4 = alloca i32, align 4
  %5 = alloca i32, align 4
  store i32 %0, ptr %4, align 4
  store i32 %1, ptr %5, align 4
  %6 = load i32, ptr %4, align 4
  switch i32 %6, label %25 [
    i32 14, label %7
    i32 15, label %10
    i32 16, label %13
    i32 17, label %16
    i32 18, label %19
    i32 19, label %22
  ]

7:                                                ; preds = %2
  %8 = load i32, ptr %5, align 4
  %9 = icmp eq i32 %8, 1
  store i1 %9, ptr %3, align 1
  br label %28

10:                                               ; preds = %2
  %11 = load i32, ptr %5, align 4
  %12 = icmp ne i32 %11, -1
  store i1 %12, ptr %3, align 1
  br label %28

13:                                               ; preds = %2
  %14 = load i32, ptr %5, align 4
  %15 = icmp eq i32 %14, -1
  store i1 %15, ptr %3, align 1
  br label %28

16:                                               ; preds = %2
  %17 = load i32, ptr %5, align 4
  %18 = icmp ne i32 %17, 1
  store i1 %18, ptr %3, align 1
  br label %28

19:                                               ; preds = %2
  %20 = load i32, ptr %5, align 4
  %21 = icmp ne i32 %20, 0
  store i1 %21, ptr %3, align 1
  br label %28

22:                                               ; preds = %2
  %23 = load i32, ptr %5, align 4
  %24 = icmp eq i32 %23, 0
  store i1 %24, ptr %3, align 1
  br label %28

25:                                               ; preds = %2
  br label %26

26:                                               ; preds = %25
  call void (ptr, ...) @error_exit(ptr noundef @.str, ptr noundef @.str.1, ptr noundef @__func__.binary_op_matches_res, ptr noundef @.str.2, i32 noundef 598) #8
  unreachable

27:                                               ; No predecessors!
  br label %28

28:                                               ; preds = %27, %22, %19, %16, %13, %10, %7
  %29 = load i1, ptr %3, align 1
  ret i1 %29
}