; Function Attrs: nounwind uwtable
define dso_local noundef zeroext i1 @binary_op_matches_res(i32 noundef %0, i32 noundef %1) local_unnamed_addr #0 {
  switch i32 %0, label %15 [
    i32 14, label %3
    i32 15, label %5
    i32 16, label %7
    i32 17, label %9
    i32 18, label %11
    i32 19, label %13
  ]

3:                                                ; preds = %2
  %4 = icmp eq i32 %1, 1
  br label %16

5:                                                ; preds = %2
  %6 = icmp ne i32 %1, -1
  br label %16

7:                                                ; preds = %2
  %8 = icmp eq i32 %1, -1
  br label %16

9:                                                ; preds = %2
  %10 = icmp ne i32 %1, 1
  br label %16

11:                                               ; preds = %2
  %12 = icmp ne i32 %1, 0
  br label %16

13:                                               ; preds = %2
  %14 = icmp eq i32 %1, 0
  br label %16

15:                                               ; preds = %2
  tail call void (ptr, ...) @error_exit(ptr noundef nonnull @.str, ptr noundef nonnull @.str.1, ptr noundef nonnull @__func__.binary_op_matches_res, ptr noundef nonnull @.str.2, i32 noundef 598) #20
  unreachable

16:                                               ; preds = %13, %11, %9, %7, %5, %3
  %.0 = phi i1 [ %14, %13 ], [ %12, %11 ], [ %10, %9 ], [ %8, %7 ], [ %6, %5 ], [ %4, %3 ]
  ret i1 %.0
}